; ModuleID = '10/1112.c'
source_filename = "10/1112.c"
target datalayout = "e-m:e-p270:32:32-p271:32:32-p272:64:64-i64:64-f80:128-n8:16:32:64-S128"
target triple = "x86_64-pc-linux-gnu"

@n = common dso_local global i32 0, align 4
@a = common dso_local global [25 x i32] zeroinitializer, align 16
@.str = private unnamed_addr constant [3 x i8] c"%d\00", align 1

; Function Attrs: noinline nounwind uwtable
define dso_local i32 @changdu(i32 %0) #0 {
  %2 = alloca i32, align 4
  %3 = alloca i32, align 4
  %4 = alloca i32, align 4
  store i32 %0, i32* %2, align 4
  store i32 0, i32* %4, align 4
  %5 = load i32, i32* %2, align 4
  %6 = load i32, i32* @n, align 4
  %7 = sub nsw i32 %6, 1
  %8 = icmp eq i32 %5, %7
  br i1 %8, label %9, label %10

9:                                                ; preds = %1
  store i32 0, i32* %4, align 4
  br label %10

10:                                               ; preds = %9, %1
  %11 = load i32, i32* %2, align 4
  %12 = add nsw i32 %11, 1
  store i32 %12, i32* %3, align 4
  br label %13

13:                                               ; preds = %37, %10
  %14 = load i32, i32* %3, align 4
  %15 = load i32, i32* @n, align 4
  %16 = icmp slt i32 %14, %15
  br i1 %16, label %17, label %40

17:                                               ; preds = %13
  %18 = load i32, i32* %3, align 4
  %19 = sext i32 %18 to i64
  %20 = getelementptr inbounds [25 x i32], [25 x i32]* @a, i64 0, i64 %19
  %21 = load i32, i32* %20, align 4
  %22 = load i32, i32* %2, align 4
  %23 = sext i32 %22 to i64
  %24 = getelementptr inbounds [25 x i32], [25 x i32]* @a, i64 0, i64 %23
  %25 = load i32, i32* %24, align 4
  %26 = icmp sle i32 %21, %25
  br i1 %26, label %27, label %36

27:                                               ; preds = %17
  %28 = load i32, i32* %3, align 4
  %29 = call i32 @changdu(i32 %28)
  %30 = load i32, i32* %4, align 4
  %31 = icmp sgt i32 %29, %30
  br i1 %31, label %32, label %35

32:                                               ; preds = %27
  %33 = load i32, i32* %3, align 4
  %34 = call i32 @changdu(i32 %33)
  store i32 %34, i32* %4, align 4
  br label %35

35:                                               ; preds = %32, %27
  br label %36

36:                                               ; preds = %35, %17
  br label %37

37:                                               ; preds = %36
  %38 = load i32, i32* %3, align 4
  %39 = add nsw i32 %38, 1
  store i32 %39, i32* %3, align 4
  br label %13

40:                                               ; preds = %13
  %41 = load i32, i32* %4, align 4
  %42 = add nsw i32 %41, 1
  ret i32 %42
}

; Function Attrs: noinline nounwind uwtable
define dso_local i32 @main() #0 {
  %1 = alloca i32, align 4
  %2 = alloca i32, align 4
  %3 = alloca i32, align 4
  store i32 0, i32* %1, align 4
  store i32 0, i32* %2, align 4
  %4 = call i32 (i8*, ...) @__isoc99_scanf(i8* getelementptr inbounds ([3 x i8], [3 x i8]* @.str, i64 0, i64 0), i32* @n)
  store i32 0, i32* %3, align 4
  br label %5

5:                                                ; preds = %14, %0
  %6 = load i32, i32* %3, align 4
  %7 = load i32, i32* @n, align 4
  %8 = icmp slt i32 %6, %7
  br i1 %8, label %9, label %17

9:                                                ; preds = %5
  %10 = load i32, i32* %3, align 4
  %11 = sext i32 %10 to i64
  %12 = getelementptr inbounds [25 x i32], [25 x i32]* @a, i64 0, i64 %11
  %13 = call i32 (i8*, ...) @__isoc99_scanf(i8* getelementptr inbounds ([3 x i8], [3 x i8]* @.str, i64 0, i64 0), i32* %12)
  br label %14

14:                                               ; preds = %9
  %15 = load i32, i32* %3, align 4
  %16 = add nsw i32 %15, 1
  store i32 %16, i32* %3, align 4
  br label %5

17:                                               ; preds = %5
  store i32 0, i32* %3, align 4
  br label %18

18:                                               ; preds = %31, %17
  %19 = load i32, i32* %3, align 4
  %20 = load i32, i32* @n, align 4
  %21 = icmp slt i32 %19, %20
  br i1 %21, label %22, label %34

22:                                               ; preds = %18
  %23 = load i32, i32* %3, align 4
  %24 = call i32 @changdu(i32 %23)
  %25 = load i32, i32* %2, align 4
  %26 = icmp sgt i32 %24, %25
  br i1 %26, label %27, label %30

27:                                               ; preds = %22
  %28 = load i32, i32* %3, align 4
  %29 = call i32 @changdu(i32 %28)
  store i32 %29, i32* %2, align 4
  br label %30

30:                                               ; preds = %27, %22
  br label %31

31:                                               ; preds = %30
  %32 = load i32, i32* %3, align 4
  %33 = add nsw i32 %32, 1
  store i32 %33, i32* %3, align 4
  br label %18

34:                                               ; preds = %18
  %35 = load i32, i32* %2, align 4
  %36 = call i32 (i8*, ...) @printf(i8* getelementptr inbounds ([3 x i8], [3 x i8]* @.str, i64 0, i64 0), i32 %35)
  %37 = load i32, i32* %1, align 4
  ret i32 %37
}

declare dso_local i32 @__isoc99_scanf(i8*, ...) #1

declare dso_local i32 @printf(i8*, ...) #1


!llvm.module.flags = !{!0}
!llvm.ident = !{!1}

!0 = !{i32 1, !"wchar_size", i32 4}
!1 = !{!"clang version 10.0.0-4ubuntu1 "}
