; ModuleID = 'source-C-CXX/9/1112.c'
source_filename = "source-C-CXX/9/1112.c"
target datalayout = "e-m:e-p270:32:32-p271:32:32-p272:64:64-i64:64-f80:128-n8:16:32:64-S128"
target triple = "x86_64-pc-linux-gnu"

@n = dso_local global i32 0, align 4
@a = dso_local global [25 x i32] zeroinitializer, align 16
@.str = private unnamed_addr constant [3 x i8] c"%d\00", align 1

; Function Attrs: nofree nosync nounwind readonly sspstrong uwtable
define dso_local i32 @changdu(i32 %0) local_unnamed_addr #0 {
  %2 = load i32, i32* @n, align 4, !tbaa !5
  %3 = add i32 %0, 1
  %4 = icmp slt i32 %3, %2
  br i1 %4, label %5, label %26

5:                                                ; preds = %1
  %6 = sext i32 %0 to i64
  %7 = getelementptr inbounds [25 x i32], [25 x i32]* @a, i64 0, i64 %6
  %8 = load i32, i32* %7, align 4, !tbaa !5
  %9 = sext i32 %3 to i64
  br label %10

10:                                               ; preds = %5, %21
  %11 = phi i64 [ %9, %5 ], [ %23, %21 ]
  %12 = phi i32 [ 0, %5 ], [ %22, %21 ]
  %13 = getelementptr inbounds [25 x i32], [25 x i32]* @a, i64 0, i64 %11
  %14 = load i32, i32* %13, align 4, !tbaa !5
  %15 = icmp sgt i32 %14, %8
  br i1 %15, label %21, label %16

16:                                               ; preds = %10
  %17 = trunc i64 %11 to i32
  %18 = tail call i32 @changdu(i32 %17)
  %19 = icmp sgt i32 %18, %12
  %20 = select i1 %19, i32 %18, i32 %12
  br label %21

21:                                               ; preds = %16, %10
  %22 = phi i32 [ %12, %10 ], [ %20, %16 ]
  %23 = add nsw i64 %11, 1
  %24 = trunc i64 %23 to i32
  %25 = icmp eq i32 %2, %24
  br i1 %25, label %26, label %10, !llvm.loop !9

26:                                               ; preds = %21, %1
  %27 = phi i32 [ 0, %1 ], [ %22, %21 ]
  %28 = add nsw i32 %27, 1
  ret i32 %28
}

; Function Attrs: nofree nounwind sspstrong uwtable
define dso_local i32 @main() local_unnamed_addr #1 {
  %1 = tail call i32 (i8*, ...) @__isoc99_scanf(i8* getelementptr inbounds ([3 x i8], [3 x i8]* @.str, i64 0, i64 0), i32* nonnull @n)
  %2 = load i32, i32* @n, align 4, !tbaa !5
  %3 = icmp sgt i32 %2, 0
  br i1 %3, label %6, label %22

4:                                                ; preds = %6
  %5 = icmp sgt i32 %11, 0
  br i1 %5, label %14, label %22

6:                                                ; preds = %0, %6
  %7 = phi i64 [ %10, %6 ], [ 0, %0 ]
  %8 = getelementptr inbounds [25 x i32], [25 x i32]* @a, i64 0, i64 %7
  %9 = tail call i32 (i8*, ...) @__isoc99_scanf(i8* getelementptr inbounds ([3 x i8], [3 x i8]* @.str, i64 0, i64 0), i32* nonnull %8)
  %10 = add nuw nsw i64 %7, 1
  %11 = load i32, i32* @n, align 4, !tbaa !5
  %12 = sext i32 %11 to i64
  %13 = icmp slt i64 %10, %12
  br i1 %13, label %6, label %4, !llvm.loop !11

14:                                               ; preds = %4, %14
  %15 = phi i32 [ %20, %14 ], [ 0, %4 ]
  %16 = phi i32 [ %19, %14 ], [ 0, %4 ]
  %17 = tail call i32 @changdu(i32 %15)
  %18 = icmp sgt i32 %17, %16
  %19 = select i1 %18, i32 %17, i32 %16
  %20 = add nuw nsw i32 %15, 1
  %21 = icmp eq i32 %20, %11
  br i1 %21, label %22, label %14, !llvm.loop !12

22:                                               ; preds = %14, %0, %4
  %23 = phi i32 [ 0, %4 ], [ 0, %0 ], [ %19, %14 ]
  %24 = tail call i32 (i8*, ...) @printf(i8* nonnull dereferenceable(1) getelementptr inbounds ([3 x i8], [3 x i8]* @.str, i64 0, i64 0), i32 %23)
  ret i32 0
}

; Function Attrs: nofree nounwind
declare noundef i32 @__isoc99_scanf(i8* nocapture noundef readonly, ...) local_unnamed_addr #2

; Function Attrs: nofree nounwind
declare noundef i32 @printf(i8* nocapture noundef readonly, ...) local_unnamed_addr #2


!llvm.module.flags = !{!0, !1, !2, !3}
!llvm.ident = !{!4}

!0 = !{i32 1, !"wchar_size", i32 4}
!1 = !{i32 7, !"PIC Level", i32 2}
!2 = !{i32 7, !"PIE Level", i32 2}
!3 = !{i32 7, !"uwtable", i32 1}
!4 = !{!"clang version 13.0.0"}
!5 = !{!6, !6, i64 0}
!6 = !{!"int", !7, i64 0}
!7 = !{!"omnipotent char", !8, i64 0}
!8 = !{!"Simple C/C++ TBAA"}
!9 = distinct !{!9, !10}
!10 = !{!"llvm.loop.mustprogress"}
!11 = distinct !{!11, !10}
!12 = distinct !{!12, !10}
